target datalayout = "e-m:e-p270:32:32-p271:32:32-p272:64:64-i64:64-i128:128-f80:128-n8:16:32:64-S128"
target triple = "x86_64-pc-linux-gnu"

; Function Attrs: nounwind uwtable
define dso_local void @makeTree(i32 noundef %0, i32 noundef %1, ptr noundef %2) #0 {
  %4 = alloca i32, align 4
  %5 = alloca i32, align 4
  %6 = alloca ptr, align 8
  %7 = alloca double, align 8
  %8 = alloca i32, align 4
  %9 = alloca i32, align 4
  %10 = alloca i32, align 4
  %11 = alloca i32, align 4
  store i32 %0, ptr %4, align 4, !tbaa !4
  store i32 %1, ptr %5, align 4, !tbaa !4
  store ptr %2, ptr %6, align 8, !tbaa !8
  call void @llvm.lifetime.start.p0(i64 8, ptr %7) #11
  %12 = load i32, ptr %5, align 4, !tbaa !4
  %13 = uitofp i32 %12 to double
  %14 = load i32, ptr %4, align 4, !tbaa !4
  %15 = uitofp i32 %14 to double
  %16 = call double @pow(double noundef %13, double noundef %15) #11, !tbaa !4
  %17 = fsub double %16, 1.000000e+00
  %18 = load i32, ptr %5, align 4, !tbaa !4
  %19 = sub i32 %18, 1
  %20 = uitofp i32 %19 to double
  %21 = fdiv double %17, %20
  store double %21, ptr %7, align 8, !tbaa !33
  call void @llvm.lifetime.start.p0(i64 4, ptr %8) #11
  store i32 2, ptr %8, align 4, !tbaa !4
  call void @llvm.lifetime.start.p0(i64 4, ptr %9) #11
  store i32 1, ptr %9, align 4, !tbaa !4
  br label %22

22:                                               ; preds = %43, %3
  %23 = load i32, ptr %9, align 4, !tbaa !4
  %24 = uitofp i32 %23 to double
  %25 = load double, ptr %7, align 8, !tbaa !33
  %26 = fcmp ole double %24, %25
  br i1 %26, label %28, label %27

27:                                               ; preds = %22
  store i32 2, ptr %10, align 4
  call void @llvm.lifetime.end.p0(i64 4, ptr %9) #11
  br label %46

28:                                               ; preds = %22
  call void @llvm.lifetime.start.p0(i64 4, ptr %11) #11
  store i32 0, ptr %11, align 4, !tbaa !4
  br label %29

29:                                               ; preds = %39, %28
  %30 = load i32, ptr %11, align 4, !tbaa !4
  %31 = load i32, ptr %5, align 4, !tbaa !4
  %32 = icmp ult i32 %30, %31
  br i1 %32, label %34, label %33

33:                                               ; preds = %29
  store i32 5, ptr %10, align 4
  call void @llvm.lifetime.end.p0(i64 4, ptr %11) #11
  br label %42

34:                                               ; preds = %29
  %35 = load ptr, ptr %6, align 8, !tbaa !8
  %36 = load i32, ptr %9, align 4, !tbaa !4
  %37 = load i32, ptr %8, align 4, !tbaa !4
  %38 = add i32 %37, 1
  store i32 %38, ptr %8, align 4, !tbaa !4
  call void %35(i32 noundef %36, i32 noundef %37)
  br label %39

39:                                               ; preds = %34
  %40 = load i32, ptr %11, align 4, !tbaa !4
  %41 = add i32 %40, 1
  store i32 %41, ptr %11, align 4, !tbaa !4
  br label %29, !llvm.loop !35

42:                                               ; preds = %33
  br label %43

43:                                               ; preds = %42
  %44 = load i32, ptr %9, align 4, !tbaa !4
  %45 = add i32 %44, 1
  store i32 %45, ptr %9, align 4, !tbaa !4
  br label %22, !llvm.loop !36

46:                                               ; preds = %27
  call void @llvm.lifetime.end.p0(i64 4, ptr %8) #11
  call void @llvm.lifetime.end.p0(i64 8, ptr %7) #11
  ret void
}