; Function Attrs: nounwind uwtable
define dso_local void @makeTree(i32 noundef %0, i32 noundef %1, ptr noundef readonly captures(none) %2) local_unnamed_addr #0 {
  %4 = uitofp i32 %1 to double
  %5 = uitofp i32 %0 to double
  %6 = tail call double @pow(double noundef %4, double noundef %5) #15, !tbaa !30
  %7 = fadd double %6, -1.000000e+00
  %8 = add i32 %1, -1
  %9 = uitofp i32 %8 to double
  %10 = fdiv double %7, %9
  %11 = fcmp ult double %10, 1.000000e+00
  %.not = icmp eq i32 %1, 0
  %or.cond = or i1 %11, %.not
  br i1 %or.cond, label %._crit_edge17, label %.preheader.us

.preheader.us:                                    ; preds = %3, %._crit_edge.us
  %.01116.us = phi i32 [ %15, %._crit_edge.us ], [ 1, %3 ]
  %.01215.us = phi i32 [ %12, %._crit_edge.us ], [ 2, %3 ]
  %12 = add i32 %1, %.01215.us
  br label %13

13:                                               ; preds = %.preheader.us, %13
  %.113.us = phi i32 [ %.01215.us, %.preheader.us ], [ %14, %13 ]
  %14 = add i32 %.113.us, 1
  tail call void %2(i32 noundef %.01116.us, i32 noundef %.113.us) #15
  %exitcond.not = icmp eq i32 %14, %12
  br i1 %exitcond.not, label %._crit_edge.us, label %13, !llvm.loop !32

._crit_edge.us:                                   ; preds = %13
  %15 = add i32 %.01116.us, 1
  %16 = uitofp i32 %15 to double
  %17 = fcmp ult double %10, %16
  br i1 %17, label %._crit_edge17, label %.preheader.us, !llvm.loop !33

._crit_edge17:                                    ; preds = %._crit_edge.us, %3
  ret void
}